; Function Attrs: mustprogress uwtable
define hidden noundef nonnull ptr @ncnn_mat_reshape_2d(ptr noundef %0, i32 noundef %1, i32 noundef %2, ptr noundef readonly %3) local_unnamed_addr #1 personality ptr @__gxx_personality_v0 {
  %5 = tail call noalias noundef nonnull dereferenceable(72) ptr @_Znwm(i64 noundef 72) #24
  %.not = icmp eq ptr %3, null
  br i1 %.not, label %8, label %6

6:                                                ; preds = %4
  %7 = load ptr, ptr %3, align 8
  br label %8

8:                                                ; preds = %4, %6
  %9 = phi ptr [ %7, %6 ], [ null, %4 ]
  invoke void @_ZNK4ncnn3Mat7reshapeEiiPNS_9AllocatorE(ptr dead_on_unwind nonnull writable sret(%"class.ncnn::Mat") align 8 %5, ptr noundef nonnull align 8 dereferenceable(72) %0, i32 noundef %1, i32 noundef %2, ptr noundef %9)
          to label %10 unwind label %11

10:                                               ; preds = %8
  ret ptr %5

11:                                               ; preds = %8
  %12 = landingpad { ptr, i32 }
          cleanup
  tail call void @_ZdlPvm(ptr noundef nonnull %5, i64 noundef 72) #25
  resume { ptr, i32 } %12
}